target datalayout = "e-m:e-p270:32:32-p271:32:32-p272:64:64-i64:64-i128:128-f80:128-n8:16:32:64-S128"
target triple = "x86_64-pc-linux-gnu"

$_ZN17meshopt_Allocator8StorageTIvE8allocateE = comdat any

$_ZN17meshopt_Allocator8StorageTIvE10deallocateE = comdat any

@_ZN17meshopt_Allocator8StorageTIvE8allocateE = linkonce_odr dso_local global ptr @_Znwm, comdat, align 8
@_ZN17meshopt_Allocator8StorageTIvE10deallocateE = linkonce_odr dso_local global ptr @_ZdlPv, comdat, align 8

; Function Attrs: mustprogress nounwind uwtable
define dso_local void @meshopt_setAllocator(ptr noundef %0, ptr noundef %1) #0 {
  %3 = alloca ptr, align 8
  %4 = alloca ptr, align 8
  store ptr %0, ptr %3, align 8, !tbaa !4
  store ptr %1, ptr %4, align 8, !tbaa !4
  %5 = load ptr, ptr %3, align 8, !tbaa !4
  store ptr %5, ptr @_ZN17meshopt_Allocator8StorageTIvE8allocateE, align 8, !tbaa !4
  %6 = load ptr, ptr %4, align 8, !tbaa !4
  store ptr %6, ptr @_ZN17meshopt_Allocator8StorageTIvE10deallocateE, align 8, !tbaa !4
  ret void
}

; Function Attrs: nobuiltin nounwind
declare void @_ZdlPv(ptr noundef) #1

; Function Attrs: nobuiltin allocsize(0)
declare noundef nonnull ptr @_Znwm(i64 noundef) #2


!llvm.module.flags = !{!0, !1, !2, !3}

!0 = !{i32 1, !"wchar_size", i32 4}
!1 = !{i32 8, !"PIC Level", i32 2}
!2 = !{i32 7, !"PIE Level", i32 2}
!3 = !{i32 7, !"uwtable", i32 2}
!4 = !{!5, !5, i64 0}
!5 = !{!"any pointer", !6, i64 0}
!6 = !{!"omnipotent char", !7, i64 0}
!7 = !{!"Simple C++ TBAA"}
